target datalayout = "e-m:e-p270:32:32-p271:32:32-p272:64:64-i64:64-i128:128-f80:128-n8:16:32:64-S128"
target triple = "x86_64-pc-linux-gnu"

%"class.std::__cxx11::basic_string" = type { %"struct.std::__cxx11::basic_string<char>::_Alloc_hider", i64, %union.anon }
%"struct.std::__cxx11::basic_string<char>::_Alloc_hider" = type { ptr }
%union.anon = type { i64, [8 x i8] }
%"class.std::allocator" = type { i8 }

@.str.1 = private unnamed_addr constant [122 x i8] c"generated/home/dtcxzyw/WorkSpace/Projects/compilers/llvm-opt-benchmark/bench/opencv/opencv/modules/highgui/src/window.cpp\00", align 1
@_ZL13NO_QT_ERR_MSG = internal global ptr @.str.46, align 8
@__func__._ZN2cv12createButtonERKNSt7__cxx1112basic_stringIcSt11char_traitsIcESaIcEEEPFviPvES8_ib = private unnamed_addr constant [13 x i8] c"createButton\00", align 1

; Function Attrs: mustprogress uwtable
define noundef i32 @_ZN2cv12createButtonERKNSt7__cxx1112basic_stringIcSt11char_traitsIcESaIcEEEPFviPvES8_ib(ptr noundef nonnull align 8 dereferenceable(32) %0, ptr noundef %1, ptr noundef %2, i32 noundef %3, i1 noundef zeroext %4) #4 personality ptr @__gxx_personality_v0 {
  %6 = alloca ptr, align 8
  %7 = alloca ptr, align 8
  %8 = alloca ptr, align 8
  %9 = alloca i32, align 4
  %10 = alloca i8, align 1
  %11 = alloca %"class.std::__cxx11::basic_string", align 8
  %12 = alloca %"class.std::allocator", align 1
  %13 = alloca ptr, align 8
  %14 = alloca i32, align 4
  store ptr %0, ptr %6, align 8
  store ptr %1, ptr %7, align 8
  store ptr %2, ptr %8, align 8
  store i32 %3, ptr %9, align 4
  %15 = zext i1 %4 to i8
  store i8 %15, ptr %10, align 1
  %16 = load ptr, ptr @_ZL13NO_QT_ERR_MSG, align 8
  call void @_ZNSaIcEC1Ev(ptr noundef nonnull align 1 dereferenceable(1) %12) #3
  invoke void @_ZNSt7__cxx1112basic_stringIcSt11char_traitsIcESaIcEEC1EPKcRKS3_(ptr noundef nonnull align 8 dereferenceable(32) %11, ptr noundef %16, ptr noundef nonnull align 1 dereferenceable(1) %12)
          to label %17 unwind label %19

17:                                               ; preds = %5
  invoke void @_ZN2cv5errorEiRKNSt7__cxx1112basic_stringIcSt11char_traitsIcESaIcEEEPKcS9_i(i32 noundef -213, ptr noundef nonnull align 8 dereferenceable(32) %11, ptr noundef @__func__._ZN2cv12createButtonERKNSt7__cxx1112basic_stringIcSt11char_traitsIcESaIcEEEPFviPvES8_ib, ptr noundef @.str.1, i32 noundef 1253) #17
          to label %18 unwind label %23

18:                                               ; preds = %17
  unreachable

19:                                               ; preds = %5
  %20 = landingpad { ptr, i32 }
          cleanup
  %21 = extractvalue { ptr, i32 } %20, 0
  store ptr %21, ptr %13, align 8
  %22 = extractvalue { ptr, i32 } %20, 1
  store i32 %22, ptr %14, align 4
  br label %27

23:                                               ; preds = %17
  %24 = landingpad { ptr, i32 }
          cleanup
  %25 = extractvalue { ptr, i32 } %24, 0
  store ptr %25, ptr %13, align 8
  %26 = extractvalue { ptr, i32 } %24, 1
  store i32 %26, ptr %14, align 4
  call void @_ZNSt7__cxx1112basic_stringIcSt11char_traitsIcESaIcEED1Ev(ptr noundef nonnull align 8 dereferenceable(32) %11) #3
  br label %27

27:                                               ; preds = %23, %19
  call void @_ZNSaIcED1Ev(ptr noundef nonnull align 1 dereferenceable(1) %12) #3
  br label %28

28:                                               ; preds = %27
  %29 = load ptr, ptr %13, align 8
  %30 = load i32, ptr %14, align 4
  %31 = insertvalue { ptr, i32 } poison, ptr %29, 0
  %32 = insertvalue { ptr, i32 } %31, i32 %30, 1
  resume { ptr, i32 } %32
}